target datalayout = "e-m:e-p270:32:32-p271:32:32-p272:64:64-i64:64-f80:128-n8:16:32:64-S128"
target triple = "x86_64-pc-linux-gnu"

@.str = private unnamed_addr constant [3 x i8] c"%d\00", align 1
@.str.1 = private unnamed_addr constant [3 x i8] c"%s\00", align 1
@.str.2 = private unnamed_addr constant [3 x i8] c"%c\00", align 1
@.str.3 = private unnamed_addr constant [2 x i8] c"\0A\00", align 1

; Function Attrs: noinline nounwind uwtable
define dso_local void @main() #0 {
  %1 = alloca [100 x i8], align 16
  %2 = alloca [100 x i8], align 16
  %3 = alloca [100 x i8], align 16
  %4 = alloca [100 x i32], align 16
  %5 = alloca [100 x i32], align 16
  %6 = alloca [100 x i32], align 16
  %7 = alloca i32, align 4
  %8 = alloca i32, align 4
  %9 = alloca i32, align 4
  %10 = alloca i32, align 4
  %11 = alloca i32, align 4
  %12 = alloca i32, align 4
  %13 = alloca i32, align 4
  %14 = call i32 (i8*, ...) @__isoc99_scanf(i8* getelementptr inbounds ([3 x i8], [3 x i8]* @.str, i64 0, i64 0), i32* %10)
  store i32 0, i32* %7, align 4
  br label %15

15:                                               ; preds = %196, %0
  %16 = load i32, i32* %7, align 4
  %17 = load i32, i32* %10, align 4
  %18 = icmp slt i32 %16, %17
  br i1 %18, label %19, label %199

19:                                               ; preds = %15
  %20 = getelementptr inbounds [100 x i8], [100 x i8]* %1, i64 0, i64 0
  %21 = call i32 (i8*, ...) @__isoc99_scanf(i8* getelementptr inbounds ([3 x i8], [3 x i8]* @.str.1, i64 0, i64 0), i8* %20)
  %22 = getelementptr inbounds [100 x i8], [100 x i8]* %2, i64 0, i64 0
  %23 = call i32 (i8*, ...) @__isoc99_scanf(i8* getelementptr inbounds ([3 x i8], [3 x i8]* @.str.1, i64 0, i64 0), i8* %22)
  store i32 0, i32* %8, align 4
  br label %24

24:                                               ; preds = %31, %19
  %25 = load i32, i32* %8, align 4
  %26 = sext i32 %25 to i64
  %27 = getelementptr inbounds [100 x i8], [100 x i8]* %1, i64 0, i64 %26
  %28 = load i8, i8* %27, align 1
  %29 = sext i8 %28 to i32
  %30 = icmp ne i32 %29, 0
  br i1 %30, label %31, label %43

31:                                               ; preds = %24
  %32 = load i32, i32* %8, align 4
  %33 = sext i32 %32 to i64
  %34 = getelementptr inbounds [100 x i8], [100 x i8]* %1, i64 0, i64 %33
  %35 = load i8, i8* %34, align 1
  %36 = sext i8 %35 to i32
  %37 = sub nsw i32 %36, 48
  %38 = load i32, i32* %8, align 4
  %39 = sext i32 %38 to i64
  %40 = getelementptr inbounds [100 x i32], [100 x i32]* %4, i64 0, i64 %39
  store i32 %37, i32* %40, align 4
  %41 = load i32, i32* %8, align 4
  %42 = add nsw i32 %41, 1
  store i32 %42, i32* %8, align 4
  br label %24

43:                                               ; preds = %24
  store i32 0, i32* %9, align 4
  br label %44

44:                                               ; preds = %51, %43
  %45 = load i32, i32* %9, align 4
  %46 = sext i32 %45 to i64
  %47 = getelementptr inbounds [100 x i8], [100 x i8]* %2, i64 0, i64 %46
  %48 = load i8, i8* %47, align 1
  %49 = sext i8 %48 to i32
  %50 = icmp ne i32 %49, 0
  br i1 %50, label %51, label %63

51:                                               ; preds = %44
  %52 = load i32, i32* %9, align 4
  %53 = sext i32 %52 to i64
  %54 = getelementptr inbounds [100 x i8], [100 x i8]* %2, i64 0, i64 %53
  %55 = load i8, i8* %54, align 1
  %56 = sext i8 %55 to i32
  %57 = sub nsw i32 %56, 48
  %58 = load i32, i32* %9, align 4
  %59 = sext i32 %58 to i64
  %60 = getelementptr inbounds [100 x i32], [100 x i32]* %5, i64 0, i64 %59
  store i32 %57, i32* %60, align 4
  %61 = load i32, i32* %9, align 4
  %62 = add nsw i32 %61, 1
  store i32 %62, i32* %9, align 4
  br label %44

63:                                               ; preds = %44
  store i32 0, i32* %11, align 4
  store i32 0, i32* %13, align 4
  br label %64

64:                                               ; preds = %91, %63
  %65 = load i32, i32* %9, align 4
  %66 = icmp sgt i32 %65, 0
  br i1 %66, label %67, label %108

67:                                               ; preds = %64
  %68 = load i32, i32* %8, align 4
  %69 = sub nsw i32 %68, 1
  %70 = sext i32 %69 to i64
  %71 = getelementptr inbounds [100 x i32], [100 x i32]* %4, i64 0, i64 %70
  %72 = load i32, i32* %71, align 4
  %73 = load i32, i32* %9, align 4
  %74 = sub nsw i32 %73, 1
  %75 = sext i32 %74 to i64
  %76 = getelementptr inbounds [100 x i32], [100 x i32]* %5, i64 0, i64 %75
  %77 = load i32, i32* %76, align 4
  %78 = sub nsw i32 %72, %77
  %79 = load i32, i32* %13, align 4
  %80 = sub nsw i32 %78, %79
  %81 = load i32, i32* %11, align 4
  %82 = sext i32 %81 to i64
  %83 = getelementptr inbounds [100 x i32], [100 x i32]* %6, i64 0, i64 %82
  store i32 %80, i32* %83, align 4
  %84 = load i32, i32* %11, align 4
  %85 = sext i32 %84 to i64
  %86 = getelementptr inbounds [100 x i32], [100 x i32]* %6, i64 0, i64 %85
  %87 = load i32, i32* %86, align 4
  %88 = icmp slt i32 %87, 0
  br i1 %88, label %89, label %90

89:                                               ; preds = %67
  store i32 1, i32* %13, align 4
  br label %91

90:                                               ; preds = %67
  store i32 0, i32* %13, align 4
  br label %91

91:                                               ; preds = %90, %89
  %92 = load i32, i32* %11, align 4
  %93 = sext i32 %92 to i64
  %94 = getelementptr inbounds [100 x i32], [100 x i32]* %6, i64 0, i64 %93
  %95 = load i32, i32* %94, align 4
  %96 = load i32, i32* %13, align 4
  %97 = mul nsw i32 10, %96
  %98 = add nsw i32 %95, %97
  %99 = load i32, i32* %11, align 4
  %100 = sext i32 %99 to i64
  %101 = getelementptr inbounds [100 x i32], [100 x i32]* %6, i64 0, i64 %100
  store i32 %98, i32* %101, align 4
  %102 = load i32, i32* %8, align 4
  %103 = add nsw i32 %102, -1
  store i32 %103, i32* %8, align 4
  %104 = load i32, i32* %9, align 4
  %105 = add nsw i32 %104, -1
  store i32 %105, i32* %9, align 4
  %106 = load i32, i32* %11, align 4
  %107 = add nsw i32 %106, 1
  store i32 %107, i32* %11, align 4
  br label %64

108:                                              ; preds = %64
  br label %109

109:                                              ; preds = %135, %108
  %110 = load i32, i32* %13, align 4
  %111 = icmp eq i32 %110, 1
  br i1 %111, label %115, label %112

112:                                              ; preds = %109
  %113 = load i32, i32* %8, align 4
  %114 = icmp sgt i32 %113, 0
  br label %115

115:                                              ; preds = %112, %109
  %116 = phi i1 [ true, %109 ], [ %114, %112 ]
  br i1 %116, label %117, label %150

117:                                              ; preds = %115
  %118 = load i32, i32* %8, align 4
  %119 = sub nsw i32 %118, 1
  %120 = sext i32 %119 to i64
  %121 = getelementptr inbounds [100 x i32], [100 x i32]* %4, i64 0, i64 %120
  %122 = load i32, i32* %121, align 4
  %123 = load i32, i32* %13, align 4
  %124 = sub nsw i32 %122, %123
  %125 = load i32, i32* %11, align 4
  %126 = sext i32 %125 to i64
  %127 = getelementptr inbounds [100 x i32], [100 x i32]* %6, i64 0, i64 %126
  store i32 %124, i32* %127, align 4
  %128 = load i32, i32* %11, align 4
  %129 = sext i32 %128 to i64
  %130 = getelementptr inbounds [100 x i32], [100 x i32]* %6, i64 0, i64 %129
  %131 = load i32, i32* %130, align 4
  %132 = icmp slt i32 %131, 0
  br i1 %132, label %133, label %134

133:                                              ; preds = %117
  store i32 1, i32* %13, align 4
  br label %135

134:                                              ; preds = %117
  store i32 0, i32* %13, align 4
  br label %135

135:                                              ; preds = %134, %133
  %136 = load i32, i32* %11, align 4
  %137 = sext i32 %136 to i64
  %138 = getelementptr inbounds [100 x i32], [100 x i32]* %6, i64 0, i64 %137
  %139 = load i32, i32* %138, align 4
  %140 = load i32, i32* %13, align 4
  %141 = mul nsw i32 10, %140
  %142 = add nsw i32 %139, %141
  %143 = load i32, i32* %11, align 4
  %144 = sext i32 %143 to i64
  %145 = getelementptr inbounds [100 x i32], [100 x i32]* %6, i64 0, i64 %144
  store i32 %142, i32* %145, align 4
  %146 = load i32, i32* %8, align 4
  %147 = add nsw i32 %146, -1
  store i32 %147, i32* %8, align 4
  %148 = load i32, i32* %11, align 4
  %149 = add nsw i32 %148, 1
  store i32 %149, i32* %11, align 4
  br label %109

150:                                              ; preds = %115
  store i32 0, i32* %12, align 4
  br label %151

151:                                              ; preds = %165, %150
  %152 = load i32, i32* %12, align 4
  %153 = load i32, i32* %11, align 4
  %154 = icmp slt i32 %152, %153
  br i1 %154, label %155, label %168

155:                                              ; preds = %151
  %156 = load i32, i32* %12, align 4
  %157 = sext i32 %156 to i64
  %158 = getelementptr inbounds [100 x i32], [100 x i32]* %6, i64 0, i64 %157
  %159 = load i32, i32* %158, align 4
  %160 = add nsw i32 %159, 48
  %161 = trunc i32 %160 to i8
  %162 = load i32, i32* %12, align 4
  %163 = sext i32 %162 to i64
  %164 = getelementptr inbounds [100 x i8], [100 x i8]* %3, i64 0, i64 %163
  store i8 %161, i8* %164, align 1
  br label %165

165:                                              ; preds = %155
  %166 = load i32, i32* %12, align 4
  %167 = add nsw i32 %166, 1
  store i32 %167, i32* %12, align 4
  br label %151

168:                                              ; preds = %151
  br label %169

169:                                              ; preds = %177, %168
  %170 = load i32, i32* %11, align 4
  %171 = sub nsw i32 %170, 1
  %172 = sext i32 %171 to i64
  %173 = getelementptr inbounds [100 x i8], [100 x i8]* %3, i64 0, i64 %172
  %174 = load i8, i8* %173, align 1
  %175 = sext i8 %174 to i32
  %176 = icmp eq i32 %175, 48
  br i1 %176, label %177, label %180

177:                                              ; preds = %169
  %178 = load i32, i32* %11, align 4
  %179 = add nsw i32 %178, -1
  store i32 %179, i32* %11, align 4
  br label %169

180:                                              ; preds = %169
  br label %181

181:                                              ; preds = %184, %180
  %182 = load i32, i32* %11, align 4
  %183 = icmp sgt i32 %182, 0
  br i1 %183, label %184, label %194

184:                                              ; preds = %181
  %185 = load i32, i32* %11, align 4
  %186 = sub nsw i32 %185, 1
  %187 = sext i32 %186 to i64
  %188 = getelementptr inbounds [100 x i8], [100 x i8]* %3, i64 0, i64 %187
  %189 = load i8, i8* %188, align 1
  %190 = sext i8 %189 to i32
  %191 = call i32 (i8*, ...) @printf(i8* getelementptr inbounds ([3 x i8], [3 x i8]* @.str.2, i64 0, i64 0), i32 %190)
  %192 = load i32, i32* %11, align 4
  %193 = add nsw i32 %192, -1
  store i32 %193, i32* %11, align 4
  br label %181

194:                                              ; preds = %181
  %195 = call i32 (i8*, ...) @printf(i8* getelementptr inbounds ([2 x i8], [2 x i8]* @.str.3, i64 0, i64 0))
  br label %196

196:                                              ; preds = %194
  %197 = load i32, i32* %7, align 4
  %198 = add nsw i32 %197, 1
  store i32 %198, i32* %7, align 4
  br label %15

199:                                              ; preds = %15
  ret void
}